; Function Attrs: mustprogress nofree norecurse nosync nounwind willreturn memory(argmem: readwrite) uwtable
define void @_ZN3gmx16LoggingSignallerC2ESt6vectorISt8functionIFvldEESaIS4_EEllNS_16StartingBehaviorE(ptr nocapture noundef nonnull writeonly align 8 dereferenceable(80) %0, ptr nocapture noundef %1, i64 noundef %2, i64 noundef %3, i32 noundef %4) unnamed_addr #6 align 2 {
  %6 = getelementptr inbounds i8, ptr %0, i64 8
  store ptr getelementptr inbounds inrange(-16, 40) ({ [7 x ptr], [5 x ptr] }, ptr @_ZTVN3gmx16LoggingSignallerE, i64 0, i32 0, i64 2), ptr %0, align 8
  store ptr getelementptr inbounds inrange(-16, 24) ({ [7 x ptr], [5 x ptr] }, ptr @_ZTVN3gmx16LoggingSignallerE, i64 0, i32 1, i64 2), ptr %6, align 8
  %7 = getelementptr inbounds i8, ptr %0, i64 16
  %8 = load ptr, ptr %1, align 8
  store ptr %8, ptr %7, align 8
  %9 = getelementptr inbounds i8, ptr %0, i64 24
  %10 = getelementptr inbounds i8, ptr %1, i64 8
  %11 = load ptr, ptr %10, align 8
  store ptr %11, ptr %9, align 8
  %12 = getelementptr inbounds i8, ptr %0, i64 32
  %13 = getelementptr inbounds i8, ptr %1, i64 16
  %14 = load ptr, ptr %13, align 8
  store ptr %14, ptr %12, align 8
  tail call void @llvm.memset.p0.i64(ptr noundef nonnull align 8 dereferenceable(24) %1, i8 0, i64 24, i1 false)
  %15 = getelementptr inbounds i8, ptr %0, i64 40
  store i64 %2, ptr %15, align 8
  %16 = getelementptr inbounds i8, ptr %0, i64 48
  store i64 %3, ptr %16, align 8
  %17 = getelementptr inbounds i8, ptr %0, i64 56
  store i32 %4, ptr %17, align 8
  %18 = getelementptr inbounds i8, ptr %0, i64 64
  store i64 -1, ptr %18, align 8
  %19 = getelementptr inbounds i8, ptr %0, i64 72
  store i8 0, ptr %19, align 8
  ret void
}